; Function Attrs: mustprogress null_pointer_is_valid sspstrong uwtable
define i32 @_ZNK12ProfileModel5flagsERK11QModelIndex(ptr noundef align 8 dereferenceable_or_null(104) %0, ptr noundef align 8 dereferenceable(24) %1) unnamed_addr #0 align 2 {
  %3 = tail call i32 @_ZNK19QAbstractTableModel5flagsERK11QModelIndex(ptr noundef align 8 dereferenceable_or_null(16) %0, ptr noundef align 8 dereferenceable(24) %1)
  %4 = load i32, ptr %1, align 8
  %5 = icmp sgt i32 %4, -1
  %6 = getelementptr inbounds nuw i8, ptr %1, i64 4
  %7 = load i32, ptr %6, align 4
  %8 = icmp sgt i32 %7, -1
  %or.cond.i = select i1 %5, i1 %8, i1 false
  %9 = getelementptr inbounds nuw i8, ptr %1, i64 16
  %10 = load ptr, ptr %9, align 8
  %11 = icmp ne ptr %10, null
  %or.cond8.i = select i1 %or.cond.i, i1 %11, i1 false
  br i1 %or.cond8.i, label %_ZNK12ProfileModel5guardERK11QModelIndex.exit, label %_ZNK12ProfileModel5guardERK11QModelIndex.exit.thread

_ZNK12ProfileModel5guardERK11QModelIndex.exit:    ; preds = %2
  %12 = tail call noundef ptr @_ZNK12ProfileModel5guardEi(ptr noundef readonly align 8 dereferenceable_or_null(104) %0, i32 noundef %4)
  %.not = icmp eq ptr %12, null
  br i1 %.not, label %_ZNK12ProfileModel5guardERK11QModelIndex.exit.thread, label %13

13:                                               ; preds = %_ZNK12ProfileModel5guardERK11QModelIndex.exit
  %14 = getelementptr inbounds nuw i8, ptr %12, i64 20
  %15 = load i8, ptr %14, align 4, !range !58, !noundef !59
  %16 = trunc nuw i8 %15 to i1
  br i1 %16, label %_ZNK12ProfileModel5guardERK11QModelIndex.exit.thread, label %17

17:                                               ; preds = %13
  %18 = load i32, ptr %6, align 4
  switch i32 %18, label %_ZNK12ProfileModel5guardERK11QModelIndex.exit.thread [
    i32 0, label %19
    i32 2, label %22
  ]

19:                                               ; preds = %17
  %20 = getelementptr inbounds nuw i8, ptr %12, i64 16
  %21 = load i32, ptr %20, align 8
  %.not8 = icmp eq i32 %21, 1
  br i1 %.not8, label %_ZNK12ProfileModel5guardERK11QModelIndex.exit.thread, label %22

22:                                               ; preds = %17, %19
  %23 = or i32 %3, 2
  br label %_ZNK12ProfileModel5guardERK11QModelIndex.exit.thread

_ZNK12ProfileModel5guardERK11QModelIndex.exit.thread: ; preds = %17, %19, %2, %22, %13, %_ZNK12ProfileModel5guardERK11QModelIndex.exit
  %.sroa.0.0 = phi i32 [ %3, %_ZNK12ProfileModel5guardERK11QModelIndex.exit ], [ %3, %13 ], [ %23, %22 ], [ %3, %2 ], [ %3, %19 ], [ %3, %17 ]
  ret i32 %.sroa.0.0
}